target datalayout = "e-m:e-p270:32:32-p271:32:32-p272:64:64-i64:64-i128:128-f80:128-n8:16:32:64-S128"
target triple = "x86_64-pc-linux-gnu"

%struct.ec_group_st = type { ptr, ptr, %struct.bignum_st, %struct.bignum_st, i32, ptr, %struct.bignum_st, %struct.bignum_st, %struct.bignum_st, i32, ptr, %struct.bignum_st }
%struct.bignum_st = type { ptr, i32, i32, i32, i32 }
%struct.ec_point_st = type { ptr, %struct.bignum_st, %struct.bignum_st, %struct.bignum_st }

@.str = private unnamed_addr constant [118 x i8] c"generated/home/dtcxzyw/WorkSpace/Projects/compilers/llvm-opt-benchmark/bench/libquic/libquic/boringssl/crypto/ec/ec.c\00", align 1

; Function Attrs: nounwind uwtable
define hidden i32 @EC_POINT_cmp(ptr noundef %0, ptr noundef %1, ptr noundef %2, ptr noundef %3) #1 {
  %5 = alloca i32, align 4
  %6 = alloca ptr, align 8
  %7 = alloca ptr, align 8
  %8 = alloca ptr, align 8
  %9 = alloca ptr, align 8
  store ptr %0, ptr %6, align 8, !tbaa !13
  store ptr %1, ptr %7, align 8, !tbaa !29
  store ptr %2, ptr %8, align 8, !tbaa !29
  store ptr %3, ptr %9, align 8, !tbaa !24
  %10 = load ptr, ptr %6, align 8, !tbaa !13
  %11 = getelementptr inbounds nuw %struct.ec_group_st, ptr %10, i32 0, i32 0
  %12 = load ptr, ptr %11, align 8, !tbaa !15
  %13 = load ptr, ptr %7, align 8, !tbaa !29
  %14 = getelementptr inbounds nuw %struct.ec_point_st, ptr %13, i32 0, i32 0
  %15 = load ptr, ptr %14, align 8, !tbaa !31
  %16 = icmp ne ptr %12, %15
  br i1 %16, label %25, label %17

17:                                               ; preds = %4
  %18 = load ptr, ptr %7, align 8, !tbaa !29
  %19 = getelementptr inbounds nuw %struct.ec_point_st, ptr %18, i32 0, i32 0
  %20 = load ptr, ptr %19, align 8, !tbaa !31
  %21 = load ptr, ptr %8, align 8, !tbaa !29
  %22 = getelementptr inbounds nuw %struct.ec_point_st, ptr %21, i32 0, i32 0
  %23 = load ptr, ptr %22, align 8, !tbaa !31
  %24 = icmp ne ptr %20, %23
  br i1 %24, label %25, label %26

25:                                               ; preds = %17, %4
  call void @ERR_put_error(i32 noundef 15, i32 noundef 0, i32 noundef 106, ptr noundef @.str, i32 noundef 782)
  store i32 -1, ptr %5, align 4
  br label %32

26:                                               ; preds = %17
  %27 = load ptr, ptr %6, align 8, !tbaa !13
  %28 = load ptr, ptr %7, align 8, !tbaa !29
  %29 = load ptr, ptr %8, align 8, !tbaa !29
  %30 = load ptr, ptr %9, align 8, !tbaa !24
  %31 = call i32 @ec_GFp_simple_cmp(ptr noundef %27, ptr noundef %28, ptr noundef %29, ptr noundef %30)
  store i32 %31, ptr %5, align 4
  br label %32

32:                                               ; preds = %26, %25
  %33 = load i32, ptr %5, align 4
  ret i32 %33
}